; Function Attrs: mustprogress nofree norecurse nosync nounwind willreturn memory(none) uwtable
define dso_local noundef zeroext i1 @_ZN4llvm3X8614isVFNMADD213SSEj(i32 noundef %0) local_unnamed_addr #0 {
  %switch.tableidx = add i32 %0, -11308
  %2 = icmp ult i32 %switch.tableidx, 15
  %switch.cast = trunc i32 %switch.tableidx to i15
  %switch.downshift = lshr i15 -10377, %switch.cast
  %switch.masked = trunc i15 %switch.downshift to i1
  %.0 = select i1 %2, i1 %switch.masked, i1 false
  ret i1 %.0
}